; Function Attrs: mustprogress nofree nounwind uwtable
define hidden noundef nonnull align 8 dereferenceable(48) ptr @_ZN2cv3ccm5GetCS11getInstanceEv() local_unnamed_addr #14 align 2 personality ptr @__gxx_personality_v0 {
  %1 = load atomic i8, ptr @_ZGVZN2cv3ccm5GetCS11getInstanceEvE8instance acquire, align 8
  %2 = icmp eq i8 %1, 0
  br i1 %2, label %3, label %7, !prof !20

3:                                                ; preds = %0
  %4 = tail call i32 @__cxa_guard_acquire(ptr nonnull @_ZGVZN2cv3ccm5GetCS11getInstanceEvE8instance) #35
  %.not = icmp eq i32 %4, 0
  br i1 %.not, label %7, label %5

5:                                                ; preds = %3
  store i32 0, ptr getelementptr inbounds nuw (i8, ptr @_ZZN2cv3ccm5GetCS11getInstanceEvE8instance, i64 8), align 8, !tbaa !195
  store ptr null, ptr getelementptr inbounds nuw (i8, ptr @_ZZN2cv3ccm5GetCS11getInstanceEvE8instance, i64 16), align 8, !tbaa !105
  store ptr getelementptr inbounds nuw (i8, ptr @_ZZN2cv3ccm5GetCS11getInstanceEvE8instance, i64 8), ptr getelementptr inbounds nuw (i8, ptr @_ZZN2cv3ccm5GetCS11getInstanceEvE8instance, i64 24), align 8, !tbaa !196
  store ptr getelementptr inbounds nuw (i8, ptr @_ZZN2cv3ccm5GetCS11getInstanceEvE8instance, i64 8), ptr getelementptr inbounds nuw (i8, ptr @_ZZN2cv3ccm5GetCS11getInstanceEvE8instance, i64 32), align 8, !tbaa !197
  store i64 0, ptr getelementptr inbounds nuw (i8, ptr @_ZZN2cv3ccm5GetCS11getInstanceEvE8instance, i64 40), align 8, !tbaa !198
  %6 = tail call i32 @__cxa_atexit(ptr nonnull @_ZN2cv3ccm5GetCSD2Ev, ptr nonnull @_ZZN2cv3ccm5GetCS11getInstanceEvE8instance, ptr nonnull @__dso_handle) #35
  tail call void @__cxa_guard_release(ptr nonnull @_ZGVZN2cv3ccm5GetCS11getInstanceEvE8instance) #35
  br label %7

7:                                                ; preds = %5, %3, %0
  ret ptr @_ZZN2cv3ccm5GetCS11getInstanceEvE8instance
}